
a.out:     file format elf32-tradbigmips

Sections:
Idx Name          Size      VMA       LMA       File off  Algn
  0 .text         000002b4  00000000  00000000  00000054  2**2
                  CONTENTS, ALLOC, LOAD, READONLY, CODE
  1 .data         000001e8  00001000  00001000  00001054  2**2
                  CONTENTS, ALLOC, LOAD, DATA
  2 .bss          00000000  000011e8  000011e8  0000123c  2**0
                  ALLOC
  3 .reginfo      00000018  00000000  00000000  0000123c  2**2
                  CONTENTS, READONLY, LINK_ONCE_SAME_SIZE
  4 .pdr          00000060  00000000  00000000  00001254  2**2
                  CONTENTS, READONLY
  5 .mdebug.abi32 00000000  00000000  00000000  000012b4  2**0
                  CONTENTS, READONLY
  6 .debug_abbrev 0000008d  00000000  00000000  000012b4  2**0
                  CONTENTS, READONLY, DEBUGGING
  7 .debug_info   0000020a  00000000  00000000  00001341  2**0
                  CONTENTS, READONLY, DEBUGGING
  8 .debug_line   00000087  00000000  00000000  0000154b  2**0
                  CONTENTS, READONLY, DEBUGGING
  9 .debug_frame  0000006c  00000000  00000000  000015d4  2**2
                  CONTENTS, READONLY, DEBUGGING
 10 .debug_pubnames 00000045  00000000  00000000  00001640  2**0
                  CONTENTS, READONLY, DEBUGGING
 11 .debug_aranges 00000038  00000000  00000000  00001685  2**0
                  CONTENTS, READONLY, DEBUGGING
 12 .debug_str    0000000a  00000000  00000000  000016bd  2**0
                  CONTENTS, READONLY, DEBUGGING
 13 .comment      0000002b  00000000  00000000  000016c7  2**0
                  CONTENTS, READONLY
SYMBOL TABLE:
00000000 l    d  .text	00000000 .text
00001000 l    d  .data	00000000 .data
000011e8 l    d  .bss	00000000 .bss
00000000 l    d  .reginfo	00000000 .reginfo
00000000 l    d  .pdr	00000000 .pdr
00000000 l    d  .mdebug.abi32	00000000 .mdebug.abi32
00000000 l    d  .debug_abbrev	00000000 .debug_abbrev
00000000 l    d  .debug_info	00000000 .debug_info
00000000 l    d  .debug_line	00000000 .debug_line
00000000 l    d  .debug_frame	00000000 .debug_frame
00000000 l    d  .debug_pubnames	00000000 .debug_pubnames
00000000 l    d  .debug_aranges	00000000 .debug_aranges
00000000 l    d  .debug_str	00000000 .debug_str
00000000 l    d  .comment	00000000 .comment
00000000 l    d  *ABS*	00000000 .shstrtab
00000000 l    d  *ABS*	00000000 .symtab
00000000 l    d  *ABS*	00000000 .strtab
00000000 l    df *ABS*	00000000 Lab4.c
00000150 g     F .text	00000164 decode
00000000 g       *ABS*	00000000 __start
00001164 g     O .data	00000084 plain
00000000 g     F .text	00000040 main
00001000 g     O .data	00000164 coded
00000040 g     F .text	00000110 codgen


Contents of section .text:
 0000 27bdffe0 afbf001c afbe0018 03a0f021  '..............!
 0010 3c020909 344212dd afc20010 3c020000  <...4B......<...
 0020 24441000 3c020000 24451164 27c60010  $D..<...$E.d'...
 0030 0c000054 00000000 1000ffff 00000000  ...T............
 0040 27bdffe8 afbe0010 03a0f021 afc40018  '..........!....
 0050 afc00000 8fc20018 00000000 8c420000  .............B..
 0060 00000000 afc2000c 8fc2000c 00000000  ................
 0070 10400010 00000000 8fc2000c 00000000  .@..............
 0080 30420001 10400005 00000000 8fc20000  0B...@..........
 0090 00000000 24420001 afc20000 8fc2000c  ....$B..........
 00a0 00000000 00021042 afc2000c 1000ffee  .......B........
 00b0 00000000 8fc20018 00000000 8c420000  .............B..
 00c0 00000000 00021e40 000211c2 00621025  .......@.....b.%
 00d0 afc20004 8fc20018 00000000 8c420000  .............B..
 00e0 00000000 00021042 afc20008 8fc20018  .......B........
 00f0 00000000 ac400000 8fc40018 8fc30004  .....@..........
 0100 8fc20008 00000000 00621821 8fc20000  .........b.!....
 0110 00000000 00621021 ac820000 8fc20018  .....b.!........
 0120 00000000 8c430000 3c020bbd 344295aa  .....C..<...4B..
 0130 00621026 afc2000c 8fc2000c 03c0e821  .b.&...........!
 0140 8fbe0010 27bd0018 03e00008 00000000  ....'...........
 0150 27bdffd0 afbf002c afbe0028 03a0f021  '......,...(...!
 0160 afc40030 afc50034 afc60038 8fc40038  ...0...4...8...8
 0170 0c000010 00000000 00021027 afc20018  ...........'....
 0180 8fc20030 00000000 8c420000 00000000  ...0.....B......
 0190 14400009 00000000 8fc20034 00000000  .@.........4....
 01a0 a0400000 8fc20018 00000000 afc20014  .@..............
 01b0 10000039 00000000 8fc20030 00000000  ...9.......0....
 01c0 24430004 8fc20034 00000000 24420001  $C.....4....$B..
 01d0 00602021 00402821 8fc60038 0c000054  .` !.@(!...8...T
 01e0 00000000 afc2001c 8fc30018 8fc2001c  ................
 01f0 00000000 00621823 8fc20030 00000000  .....b.#...0....
 0200 8c420000 00000000 00621021 afc20010  .B.......b.!....
 0210 8fc20010 00000000 afc20020 8fc20020  ........... ... 
 0220 00000000 00021500 afc20020 8fc20020  ........... ... 
 0230 00000000 00021603 304200ff afc20020  ........0B..... 
 0240 8fc30034 8fc20020 00000000 a0620000  ...4... .....b..
 0250 8fc40038 0c000010 00000000 00021027  ...8...........'
 0260 24420001 afc20014 8fc30018 8fc2001c  $B..............
 0270 00000000 00621821 8fc20010 00000000  .....b.!........
 0280 00621821 8fc20014 00000000 00621021  .b.!.........b.!
 0290 24420005 afc20014 8fc20014 03c0e821  $B.............!
 02a0 8fbf002c 8fbe0028 27bd0030 03e00008  ...,...('..0....
 02b0 00000000                             ....            
Contents of section .data:
 1000 74622c2a 457f269d ca9719a1 ab3ead47  tb,*E.&......>.G
 1010 d505f612 28c1e207 f91c45cd a2bc576e  ....(.....E...Wn
 1020 c5740f7d 5456f078 f7b33c52 1548a083  .t.}TV.x..<R.H..
 1030 60424560 b86096a9 7390e797 0abb4814  `BE`.`..s.....H.
 1040 f8c04a5b 8c1a4ea7 a3afdad0 c482a5b9  ..J[..N.........
 1050 6f2fd3ca 76081edd bf0be87d e1ebab64  o/..v......}...d
 1060 3f19f8fd 71e9dbae d2461be4 67a1c62a  ?...q....F..g..*
 1070 dce2d947 bda793a7 54d793c7 354081be  ...G....T...5@..
 1080 8a8ec062 c21e814f da3e8826 d88b322e  ...b...O.>.&..2.
 1090 73e1ca8e 58e4863c 9211768d fbd98f2b  s...X..<..v....+
 10a0 aa3819ff b4168e4e 9c996e25 a228db96  .8.....N..n%.(..
 10b0 976236b4 894f2c79 a93caa49 03e22eed  .b6..O,y.<.I....
 10c0 a2689d3b 88ce0329 313f4f80 7306761f  .h.;...)1?O.s.v.
 10d0 c667fab7 7c1d9d40 0bab42b8 ddb25676  .g..|..@..B...Vv
 10e0 bcc552f2 1165db15 dbcabeef 35591d33  ..R..e......5Y.3
 10f0 fa324116 f118398f 721cfd54 525ab393  .2A...9.r..TRZ..
 1100 64ed450a 8fb58b4d 8d9aebfb 081e4529  d.E....M......E)
 1110 cd2ae6ba 7acfb8f8 019e2068 b6c6980a  .*..z..... h....
 1120 b0ad87c8 9be857e4 1b339466 15023570  ......W..3.f..5p
 1130 20b660f1 e19e6783 1a67ae3a 8ddfca58   .`...g..g.:...X
 1140 b345ade2 58a5cb41 9810dab8 5b21939f  .E..X..A....[!..
 1150 9c29fca2 66517be4 067c7349 ed7387b0  .)..fQ{..|sI.s..
 1160 00000000 00000000 00000000 00000000  ................
 1170 00000000 00000000 00000000 00000000  ................
 1180 00000000 00000000 00000000 00000000  ................
 1190 00000000 00000000 00000000 00000000  ................
 11a0 00000000 00000000 00000000 00000000  ................
 11b0 00000000 00000000 00000000 00000000  ................
 11c0 00000000 00000000 00000000 00000000  ................
 11d0 00000000 00000000 00000000 00000000  ................
 11e0 00000000 00000000                    ........        
Contents of section .reginfo:
 0000 e000007c 00000000 00000000 00000000  ...|............
 0010 00000000 00000000                    ........        
Contents of section .pdr:
 0000 00000000 c0000000 fffffffc 00000000  ................
 0010 00000000 00000020 0000001e 0000001f  ....... ........
 0020 00000040 40000000 fffffff8 00000000  ...@@...........
 0030 00000000 00000018 0000001e 0000001f  ................
 0040 00000150 c0000000 fffffffc 00000000  ...P............
 0050 00000000 00000030 0000001e 0000001f  .......0........
Contents of section .debug_abbrev:
 0000 01110110 06250813 0b03081b 08000002  .....%..........
 0010 2e010113 3f0c0308 3a0b3b0b 270c4913  ....?...:.;.'.I.
 0020 11011201 400a0000 03340003 083a0b3b  ....@....4...:.;
 0030 0b491302 0a000004 24000308 0b0b3e0b  .I......$.....>.
 0040 00000505 00030e3a 0b3b0b49 13020a00  .......:.;.I....
 0050 00060f00 0b0b4913 00000705 0003083a  ......I........:
 0060 0b3b0b49 13020a00 00080101 01134913  .;.I..........I.
 0070 00000921 0049132f 0b00000a 34000308  ...!.I./....4...
 0080 3a0b3b0b 49133f0c 020a0000 00        :.;.I.?......   
Contents of section .debug_info:
 0000 00000206 00020000 00000401 00000000  ................
 0010 474e5520 4320332e 342e3420 6d697073  GNU C 3.4.4 mips
 0020 7364652d 362e3036 2e30312d 32303037  sde-6.06.01-2007
 0030 30343230 00014c61 62342e63 002f6166  0420..Lab4.c./af
 0040 732f6c74 752e7365 2f737475 64656e74  s/ltu.se/student
 0050 732f632f 612f6361 72667269 2d352f64  s/c/a/carfri-5/d
 0060 30303133 652f6c61 62340002 00000097  0013e/lab4......
 0070 016d6169 6e000161 01000000 97000000  .main..a........
 0080 00000000 40016e03 73656564 00016300  ....@.n.seed..c.
 0090 00009702 91100004 696e7400 04050200  ........int.....
 00a0 0000fb01 636f6467 656e0001 6a010000  ....codgen..j...
 00b0 00970000 00400000 0150016e 05000000  .....@...P.n....
 00c0 00016a00 0000fb02 9118036e 00016b00  ..j........n..k.
 00d0 00009702 91000378 00016c00 00010102  .......x..l.....
 00e0 91040379 00016c00 00010102 9108036b  ...y..l........k
 00f0 00016c00 00010102 910c0006 04000000  ..l.............
 0100 9704756e 7369676e 65642069 6e740004  ..unsigned int..
 0110 07020000 019e0164 65636f64 6500017c  .......decode..|
 0120 01000000 97000001 50000002 b4016e07  ........P.....n.
 0130 776f7264 61727200 017c0000 00fb0291  wordarr..|......
 0140 30076279 74656172 7200017c 0000019e  0.bytearr..|....
 0150 02913405 00000000 017c0000 00fb0291  ..4......|......
 0160 38036d00 017e0000 00970291 10037200  8.m..~........r.
 0170 017e0000 00970291 14037800 017e0000  .~........x..~..
 0180 00970291 18037900 017e0000 00970291  ......y..~......
 0190 1c037a00 017e0000 00970291 20000604  ..z..~...... ...
 01a0 000001a4 04636861 72000108 08000001  .....char.......
 01b0 bc000001 a4090000 01bc8300 046c6f6e  .............lon
 01c0 6720756e 7369676e 65642069 6e740004  g unsigned int..
 01d0 070a706c 61696e00 01010000 01ac0105  ..plain.........
 01e0 03000011 64080000 01f50000 00970900  ....d...........
 01f0 0001bc58 000a636f 64656400 01020000  ...X..coded.....
 0200 01e50105 03000010 0000               ..........      
Contents of section .debug_line:
 0000 00000083 00020000 001a0101 fb0e0a00  ................
 0010 01010101 00000001 004c6162 342e6300  .........Lab4.c.
 0020 00000000 00050200 00015003 fb000108  ..........P.....
 0030 ad083b08 72b8083c 02301002 2810b8f0  ..;.r..<.0..(...
 0040 083af008 72023011 48021800 01010005  .:..r.0.H.......
 0050 02000000 4003e900 01f24808 3af0083a  ....@.....H.:..:
 0060 f0087308 e20872b8 02241008 aa480214  ..s...r..$...H..
 0070 00010100 05020000 000003e0 0001f1b8  ................
 0080 08aa0208 000101                      .......         
Contents of section .debug_frame:
 0000 0000000c ffffffff 01000104 1f0c1d00  ................
 0010 0000001c 00000000 00000000 00000040  ...............@
 0020 440e2048 111e7e11 1f7f440d 1e000000  D. H..~...D.....
 0030 00000018 00000000 00000040 00000110  ...........@....
 0040 440e1844 111e7e44 0d1e0000 0000001c  D..D..~D........
 0050 00000000 00000150 00000164 440e3048  .......P...dD.0H
 0060 111e7e11 1f7f440d 1e000000           ..~...D.....    
Contents of section .debug_pubnames:
 0000 00000041 00020000 00000000 020a0000  ...A............
 0010 006b6d61 696e0000 00009e63 6f646765  .kmain.....codge
 0020 6e000000 01116465 636f6465 00000001  n.....decode....
 0030 d1706c61 696e0000 0001f563 6f646564  .plain.....coded
 0040 00000000 00                          .....           
Contents of section .debug_aranges:
 0000 00000034 00020000 00000400 00000000  ...4............
 0010 000002b4 00000000 00000000 00000040  ...............@
 0020 00000040 00000110 00000150 00000164  ...@.......P...d
 0030 00000000 00000000                    ........        
Contents of section .debug_str:
 0000 73656564 5f616464 7200               seed_addr.      
Contents of section .comment:
 0000 00474343 3a202847 4e552920 332e342e  .GCC: (GNU) 3.4.
 0010 34206d69 70737364 652d362e 30362e30  4 mipssde-6.06.0
 0020 312d3230 30373034 323000             1-20070420.     
Disassembly of section .text:

00000000 <main>:

int decode(int *wordarr,char *bytearr,int *seed_addr);

int main(void)
{
   0:	27bdffe0 	addiu	sp,sp,-32
   4:	afbf001c 	sw	ra,28(sp)
   8:	afbe0018 	sw	s8,24(sp)
   c:	03a0f021 	move	s8,sp
	
	int seed = 0x090912dd;
  10:	3c020909 	lui	v0,0x909
  14:	344212dd 	ori	v0,v0,0x12dd
  18:	afc20010 	sw	v0,16(s8)
	decode(coded,plain,&seed);
  1c:	3c020000 	lui	v0,0x0
  20:	24441000 	addiu	a0,v0,4096
  24:	3c020000 	lui	v0,0x0
  28:	24451164 	addiu	a1,v0,4452
  2c:	27c60010 	addiu	a2,s8,16
  30:	0c000054 	jal	150 <decode>
  34:	00000000 	nop
	while(1==1){
  38:	1000ffff 	b	38 <__start+0x38>
  3c:	00000000 	nop

00000040 <codgen>:
	//do nothing			
	}
}

int codgen(int *seed_addr){
  40:	27bdffe8 	addiu	sp,sp,-24
  44:	afbe0010 	sw	s8,16(sp)
  48:	03a0f021 	move	s8,sp
  4c:	afc40018 	sw	a0,24(s8)
	signed int n;
	unsigned int x,y,k;
	n = 0;
  50:	afc00000 	sw	zero,0(s8)
	k = *seed_addr;
  54:	8fc20018 	lw	v0,24(s8)
  58:	00000000 	nop
  5c:	8c420000 	lw	v0,0(v0)
  60:	00000000 	nop
  64:	afc2000c 	sw	v0,12(s8)
    	while (k > 0) {           				//count number of 1 in seed, set it = n
  68:	8fc2000c 	lw	v0,12(s8)
  6c:	00000000 	nop
  70:	10400010 	beqz	v0,b4 <codgen+0x74>
  74:	00000000 	nop
        	if ((k & 1) == 1)
  78:	8fc2000c 	lw	v0,12(s8)
  7c:	00000000 	nop
  80:	30420001 	andi	v0,v0,0x1
  84:	10400005 	beqz	v0,9c <codgen+0x5c>
  88:	00000000 	nop
            	n=n+1;
  8c:	8fc20000 	lw	v0,0(s8)
  90:	00000000 	nop
  94:	24420001 	addiu	v0,v0,1
  98:	afc20000 	sw	v0,0(s8)
        	k >>= 1;
  9c:	8fc2000c 	lw	v0,12(s8)
  a0:	00000000 	nop
  a4:	00021042 	srl	v0,v0,0x1
  a8:	afc2000c 	sw	v0,12(s8)
  ac:	1000ffee 	b	68 <codgen+0x28>
  b0:	00000000 	nop
	}
	x= ((unsigned)*seed_addr << 25) | ((unsigned)*seed_addr >> (32 - 25));	//rotate seed 25 left
  b4:	8fc20018 	lw	v0,24(s8)
  b8:	00000000 	nop
  bc:	8c420000 	lw	v0,0(v0)
  c0:	00000000 	nop
  c4:	00021e40 	sll	v1,v0,0x19
  c8:	000211c2 	srl	v0,v0,0x7
  cc:	00621025 	or	v0,v1,v0
  d0:	afc20004 	sw	v0,4(s8)
	y=(unsigned)*seed_addr/2;
  d4:	8fc20018 	lw	v0,24(s8)
  d8:	00000000 	nop
  dc:	8c420000 	lw	v0,0(v0)
  e0:	00000000 	nop
  e4:	00021042 	srl	v0,v0,0x1
  e8:	afc20008 	sw	v0,8(s8)
	*seed_addr=0;
  ec:	8fc20018 	lw	v0,24(s8)
  f0:	00000000 	nop
  f4:	ac400000 	sw	zero,0(v0)
	*seed_addr=x+y+(unsigned)n;					//update new seed
  f8:	8fc40018 	lw	a0,24(s8)
  fc:	8fc30004 	lw	v1,4(s8)
 100:	8fc20008 	lw	v0,8(s8)
 104:	00000000 	nop
 108:	00621821 	addu	v1,v1,v0
 10c:	8fc20000 	lw	v0,0(s8)
 110:	00000000 	nop
 114:	00621021 	addu	v0,v1,v0
 118:	ac820000 	sw	v0,0(a0)
	k = *seed_addr ^ 0x0bbd95aa;				//return seed xor 0x0bbd95aa
 11c:	8fc20018 	lw	v0,24(s8)
 120:	00000000 	nop
 124:	8c430000 	lw	v1,0(v0)
 128:	3c020bbd 	lui	v0,0xbbd
 12c:	344295aa 	ori	v0,v0,0x95aa
 130:	00621026 	xor	v0,v1,v0
 134:	afc2000c 	sw	v0,12(s8)
	return (k);
 138:	8fc2000c 	lw	v0,12(s8)
}
 13c:	03c0e821 	move	sp,s8
 140:	8fbe0010 	lw	s8,16(sp)
 144:	27bd0018 	addiu	sp,sp,24
 148:	03e00008 	jr	ra
 14c:	00000000 	nop

00000150 <decode>:

int decode(int *wordarr,char *bytearr,int *seed_addr){
 150:	27bdffd0 	addiu	sp,sp,-48
 154:	afbf002c 	sw	ra,44(sp)
 158:	afbe0028 	sw	s8,40(sp)
 15c:	03a0f021 	move	s8,sp
 160:	afc40030 	sw	a0,48(s8)
 164:	afc50034 	sw	a1,52(s8)
 168:	afc60038 	sw	a2,56(s8)
	
	int m,r,x,y,z;

	x = (~codgen(seed_addr));				//one's complement of the value returned from codgen()
 16c:	8fc40038 	lw	a0,56(s8)
 170:	0c000010 	jal	40 <codgen>
 174:	00000000 	nop
 178:	00021027 	nor	v0,zero,v0
 17c:	afc20018 	sw	v0,24(s8)

	if(*wordarr == 0){					//check if the last word of wordarr have been reached
 180:	8fc20030 	lw	v0,48(s8)
 184:	00000000 	nop
 188:	8c420000 	lw	v0,0(v0)
 18c:	00000000 	nop
 190:	14400009 	bnez	v0,1b8 <decode+0x68>
 194:	00000000 	nop
		*bytearr = 0;					//if so set the final element of bytearr = 0
 198:	8fc20034 	lw	v0,52(s8)
 19c:	00000000 	nop
 1a0:	a0400000 	sb	zero,0(v0)
		r = x;		
 1a4:	8fc20018 	lw	v0,24(s8)
 1a8:	00000000 	nop
 1ac:	afc20014 	sw	v0,20(s8)
 1b0:	10000039 	b	298 <decode+0x148>
 1b4:	00000000 	nop
	}
	else{
		y = decode(wordarr+1, bytearr+1, seed_addr);	//else call decode again with the next value of wordarr, bytearr
 1b8:	8fc20030 	lw	v0,48(s8)
 1bc:	00000000 	nop
 1c0:	24430004 	addiu	v1,v0,4
 1c4:	8fc20034 	lw	v0,52(s8)
 1c8:	00000000 	nop
 1cc:	24420001 	addiu	v0,v0,1
 1d0:	00602021 	move	a0,v1
 1d4:	00402821 	move	a1,v0
 1d8:	8fc60038 	lw	a2,56(s8)
 1dc:	0c000054 	jal	150 <decode>
 1e0:	00000000 	nop
 1e4:	afc2001c 	sw	v0,28(s8)
		m = (x - y) + *wordarr;
 1e8:	8fc30018 	lw	v1,24(s8)
 1ec:	8fc2001c 	lw	v0,28(s8)
 1f0:	00000000 	nop
 1f4:	00621823 	subu	v1,v1,v0
 1f8:	8fc20030 	lw	v0,48(s8)
 1fc:	00000000 	nop
 200:	8c420000 	lw	v0,0(v0)
 204:	00000000 	nop
 208:	00621021 	addu	v0,v1,v0
 20c:	afc20010 	sw	v0,16(s8)
		z = m;
 210:	8fc20010 	lw	v0,16(s8)
 214:	00000000 	nop
 218:	afc20020 	sw	v0,32(s8)
		z = z<<20;
 21c:	8fc20020 	lw	v0,32(s8)
 220:	00000000 	nop
 224:	00021500 	sll	v0,v0,0x14
 228:	afc20020 	sw	v0,32(s8)
		z = (z >> (8*3)) & 0xff;
 22c:	8fc20020 	lw	v0,32(s8)
 230:	00000000 	nop
 234:	00021603 	sra	v0,v0,0x18
 238:	304200ff 	andi	v0,v0,0xff
 23c:	afc20020 	sw	v0,32(s8)
		*bytearr = z;					//set bytearr = m[11:4]
 240:	8fc30034 	lw	v1,52(s8)
 244:	8fc20020 	lw	v0,32(s8)
 248:	00000000 	nop
 24c:	a0620000 	sb	v0,0(v1)
		r = (~codgen(seed_addr)) + 1;			//r = two's complement of the value returned from codgen()
 250:	8fc40038 	lw	a0,56(s8)
 254:	0c000010 	jal	40 <codgen>
 258:	00000000 	nop
 25c:	00021027 	nor	v0,zero,v0
 260:	24420001 	addiu	v0,v0,1
 264:	afc20014 	sw	v0,20(s8)
		r = x+y+m+r+5;
 268:	8fc30018 	lw	v1,24(s8)
 26c:	8fc2001c 	lw	v0,28(s8)
 270:	00000000 	nop
 274:	00621821 	addu	v1,v1,v0
 278:	8fc20010 	lw	v0,16(s8)
 27c:	00000000 	nop
 280:	00621821 	addu	v1,v1,v0
 284:	8fc20014 	lw	v0,20(s8)
 288:	00000000 	nop
 28c:	00621021 	addu	v0,v1,v0
 290:	24420005 	addiu	v0,v0,5
 294:	afc20014 	sw	v0,20(s8)
	}
	return r;
 298:	8fc20014 	lw	v0,20(s8)
}
 29c:	03c0e821 	move	sp,s8
 2a0:	8fbf002c 	lw	ra,44(sp)
 2a4:	8fbe0028 	lw	s8,40(sp)
 2a8:	27bd0030 	addiu	sp,sp,48
 2ac:	03e00008 	jr	ra
 2b0:	00000000 	nop
